target datalayout = "e-m:e-p270:32:32-p271:32:32-p272:64:64-i64:64-i128:128-f80:128-n8:16:32:64-S128"
target triple = "x86_64-pc-linux-gnu"

%struct.Rtm_Obj_t_ = type { ptr, i32, i32, i32, i32, [0 x ptr] }

; Function Attrs: inlinehint nounwind uwtable
define internal ptr @Rtm_ObjFanout(ptr noundef %0, i32 noundef %1) #5 {
  %3 = alloca ptr, align 8
  %4 = alloca i32, align 4
  store ptr %0, ptr %3, align 8, !tbaa !40
  store i32 %1, ptr %4, align 4, !tbaa !21
  %5 = load ptr, ptr %3, align 8, !tbaa !40
  %6 = getelementptr inbounds nuw %struct.Rtm_Obj_t_, ptr %5, i32 0, i32 5
  %7 = load ptr, ptr %3, align 8, !tbaa !40
  %8 = getelementptr inbounds nuw %struct.Rtm_Obj_t_, ptr %7, i32 0, i32 1
  %9 = load i32, ptr %8, align 8
  %10 = lshr i32 %9, 7
  %11 = and i32 %10, 255
  %12 = zext i32 %11 to i64
  %13 = trunc i64 %12 to i32
  %14 = load i32, ptr %4, align 4, !tbaa !21
  %15 = add nsw i32 %13, %14
  %16 = mul nsw i32 2, %15
  %17 = sext i32 %16 to i64
  %18 = getelementptr inbounds [0 x ptr], ptr %6, i64 0, i64 %17
  %19 = load ptr, ptr %18, align 8, !tbaa !45
  ret ptr %19
}

; Function Attrs: nounwind uwtable
define void @Rtm_ObjMarkAutoFwd_rec(ptr noundef %0) #0 {
  %2 = alloca ptr, align 8
  %3 = alloca ptr, align 8
  %4 = alloca i32, align 4
  %5 = alloca i32, align 4
  store ptr %0, ptr %2, align 8, !tbaa !40
  call void @llvm.lifetime.start.p0(i64 8, ptr %3) #11
  call void @llvm.lifetime.start.p0(i64 4, ptr %4) #11
  %6 = load ptr, ptr %2, align 8, !tbaa !40
  %7 = getelementptr inbounds nuw %struct.Rtm_Obj_t_, ptr %6, i32 0, i32 1
  %8 = load i32, ptr %7, align 8
  %9 = lshr i32 %8, 4
  %10 = and i32 %9, 1
  %11 = zext i32 %10 to i64
  %12 = icmp ne i64 %11, 0
  br i1 %12, label %13, label %14

13:                                               ; preds = %1
  store i32 1, ptr %5, align 4
  br label %38

14:                                               ; preds = %1
  %15 = load ptr, ptr %2, align 8, !tbaa !40
  %16 = getelementptr inbounds nuw %struct.Rtm_Obj_t_, ptr %15, i32 0, i32 1
  %17 = load i32, ptr %16, align 8
  %18 = and i32 %17, -17
  %19 = or i32 %18, 16
  store i32 %19, ptr %16, align 8
  store i32 0, ptr %4, align 4, !tbaa !21
  br label %20

20:                                               ; preds = %34, %14
  %21 = load i32, ptr %4, align 4, !tbaa !21
  %22 = load ptr, ptr %2, align 8, !tbaa !40
  %23 = getelementptr inbounds nuw %struct.Rtm_Obj_t_, ptr %22, i32 0, i32 4
  %24 = load i32, ptr %23, align 4, !tbaa !49
  %25 = icmp slt i32 %21, %24
  br i1 %25, label %26, label %30

26:                                               ; preds = %20
  %27 = load ptr, ptr %2, align 8, !tbaa !40
  %28 = load i32, ptr %4, align 4, !tbaa !21
  %29 = call ptr @Rtm_ObjFanout(ptr noundef %27, i32 noundef %28)
  store ptr %29, ptr %3, align 8, !tbaa !40
  br label %30

30:                                               ; preds = %26, %20
  %31 = phi i1 [ false, %20 ], [ true, %26 ]
  br i1 %31, label %32, label %37

32:                                               ; preds = %30
  %33 = load ptr, ptr %3, align 8, !tbaa !40
  call void @Rtm_ObjMarkAutoFwd_rec(ptr noundef %33)
  br label %34

34:                                               ; preds = %32
  %35 = load i32, ptr %4, align 4, !tbaa !21
  %36 = add nsw i32 %35, 1
  store i32 %36, ptr %4, align 4, !tbaa !21
  br label %20, !llvm.loop !58

37:                                               ; preds = %30
  store i32 0, ptr %5, align 4
  br label %38

38:                                               ; preds = %37, %13
  call void @llvm.lifetime.end.p0(i64 4, ptr %4) #11
  call void @llvm.lifetime.end.p0(i64 8, ptr %3) #11
  %39 = load i32, ptr %5, align 4
  switch i32 %39, label %41 [
    i32 0, label %40
    i32 1, label %40
  ]

40:                                               ; preds = %38, %38
  ret void

41:                                               ; preds = %38
  unreachable
}