; Function Attrs: nofree nosync nounwind memory(readwrite, inaccessiblemem: none) uwtable
define void @Rtm_ObjMarkAutoFwd_rec(ptr noundef captures(none) %0) local_unnamed_addr #11 {
  %2 = getelementptr inbounds nuw i8, ptr %0, i64 8
  %3 = load i32, ptr %2, align 8
  %4 = and i32 %3, 16
  %.not = icmp eq i32 %4, 0
  br i1 %.not, label %5, label %.critedge

5:                                                ; preds = %1
  %6 = or disjoint i32 %3, 16
  store i32 %6, ptr %2, align 8
  %7 = getelementptr inbounds nuw i8, ptr %0, i64 20
  %8 = load i32, ptr %7, align 4, !tbaa !41
  %9 = icmp sgt i32 %8, 0
  br i1 %9, label %.lr.ph, label %.critedge

.lr.ph:                                           ; preds = %5
  %10 = getelementptr inbounds nuw i8, ptr %0, i64 24
  br label %11

11:                                               ; preds = %.lr.ph, %11
  %.07 = phi i32 [ 0, %.lr.ph ], [ %20, %11 ]
  %12 = load i32, ptr %2, align 8
  %13 = lshr i32 %12, 7
  %14 = and i32 %13, 255
  %15 = add nuw nsw i32 %14, %.07
  %16 = shl nuw nsw i32 %15, 1
  %17 = zext nneg i32 %16 to i64
  %18 = getelementptr inbounds nuw [0 x ptr], ptr %10, i64 0, i64 %17
  %19 = load ptr, ptr %18, align 8, !tbaa !34
  tail call void @Rtm_ObjMarkAutoFwd_rec(ptr noundef %19)
  %20 = add nuw nsw i32 %.07, 1
  %21 = load i32, ptr %7, align 4, !tbaa !41
  %22 = icmp slt i32 %20, %21
  br i1 %22, label %11, label %.critedge, !llvm.loop !54

.critedge:                                        ; preds = %11, %5, %1
  ret void
}